target datalayout = "e-m:e-p270:32:32-p271:32:32-p272:64:64-i64:64-i128:128-f80:128-n8:16:32:64-S128"
target triple = "x86_64-pc-linux-gnu"

%struct.anon = type { ptr, double }

; Function Attrs: nounwind uwtable
define internal i32 @f(double noundef %0, ptr noundef %1, ptr noundef %2, ptr noundef %3) #0 {
  %5 = alloca double, align 8
  %6 = alloca ptr, align 8
  %7 = alloca ptr, align 8
  %8 = alloca ptr, align 8
  %9 = alloca double, align 8
  %10 = alloca double, align 8
  %11 = alloca double, align 8
  %12 = alloca double, align 8
  %13 = alloca double, align 8
  %14 = alloca double, align 8
  %15 = alloca double, align 8
  %16 = alloca double, align 8
  %17 = alloca ptr, align 8
  %18 = alloca ptr, align 8
  %19 = alloca i32, align 4
  %20 = alloca ptr, align 8
  store double %0, ptr %5, align 8, !tbaa !26
  store ptr %1, ptr %6, align 8, !tbaa !12
  store ptr %2, ptr %7, align 8, !tbaa !12
  store ptr %3, ptr %8, align 8, !tbaa !11
  call void @llvm.lifetime.start.p0(i64 8, ptr %9) #8
  call void @llvm.lifetime.start.p0(i64 8, ptr %10) #8
  call void @llvm.lifetime.start.p0(i64 8, ptr %11) #8
  call void @llvm.lifetime.start.p0(i64 8, ptr %12) #8
  call void @llvm.lifetime.start.p0(i64 8, ptr %13) #8
  call void @llvm.lifetime.start.p0(i64 8, ptr %14) #8
  call void @llvm.lifetime.start.p0(i64 8, ptr %15) #8
  call void @llvm.lifetime.start.p0(i64 8, ptr %16) #8
  call void @llvm.lifetime.start.p0(i64 8, ptr %17) #8
  call void @llvm.lifetime.start.p0(i64 8, ptr %18) #8
  call void @llvm.lifetime.start.p0(i64 4, ptr %19) #8
  call void @llvm.lifetime.start.p0(i64 8, ptr %20) #8
  %21 = load ptr, ptr %6, align 8, !tbaa !12
  %22 = call ptr @N_VGetArrayPointer(ptr noundef %21)
  store ptr %22, ptr %17, align 8, !tbaa !14
  %23 = load ptr, ptr %7, align 8, !tbaa !12
  %24 = call ptr @N_VGetArrayPointer(ptr noundef %23)
  store ptr %24, ptr %18, align 8, !tbaa !14
  %25 = load ptr, ptr %8, align 8, !tbaa !11
  store ptr %25, ptr %20, align 8, !tbaa !11
  %26 = load ptr, ptr %20, align 8, !tbaa !11
  %27 = getelementptr inbounds nuw %struct.anon, ptr %26, i32 0, i32 1
  %28 = load double, ptr %27, align 8, !tbaa !25
  store double %28, ptr %16, align 8, !tbaa !26
  %29 = load ptr, ptr %20, align 8, !tbaa !11
  %30 = getelementptr inbounds nuw %struct.anon, ptr %29, i32 0, i32 0
  %31 = load ptr, ptr %30, align 8, !tbaa !22
  %32 = getelementptr inbounds double, ptr %31, i64 0
  %33 = load double, ptr %32, align 8, !tbaa !26
  %34 = load double, ptr %16, align 8, !tbaa !26
  %35 = load double, ptr %16, align 8, !tbaa !26
  %36 = fmul double %34, %35
  %37 = fdiv double %33, %36
  store double %37, ptr %12, align 8, !tbaa !26
  %38 = load ptr, ptr %20, align 8, !tbaa !11
  %39 = getelementptr inbounds nuw %struct.anon, ptr %38, i32 0, i32 0
  %40 = load ptr, ptr %39, align 8, !tbaa !22
  %41 = getelementptr inbounds double, ptr %40, i64 1
  %42 = load double, ptr %41, align 8, !tbaa !26
  %43 = load double, ptr %16, align 8, !tbaa !26
  %44 = fmul double 2.000000e+00, %43
  %45 = fdiv double %42, %44
  store double %45, ptr %13, align 8, !tbaa !26
  store i32 0, ptr %19, align 4, !tbaa !4
  br label %46

46:                                               ; preds = %96, %4
  %47 = load i32, ptr %19, align 4, !tbaa !4
  %48 = icmp slt i32 %47, 10
  br i1 %48, label %49, label %99

49:                                               ; preds = %46
  %50 = load ptr, ptr %17, align 8, !tbaa !14
  %51 = load i32, ptr %19, align 4, !tbaa !4
  %52 = sext i32 %51 to i64
  %53 = getelementptr inbounds double, ptr %50, i64 %52
  %54 = load double, ptr %53, align 8, !tbaa !26
  store double %54, ptr %9, align 8, !tbaa !26
  %55 = load i32, ptr %19, align 4, !tbaa !4
  %56 = icmp ne i32 %55, 0
  br i1 %56, label %57, label %64

57:                                               ; preds = %49
  %58 = load ptr, ptr %17, align 8, !tbaa !14
  %59 = load i32, ptr %19, align 4, !tbaa !4
  %60 = sub nsw i32 %59, 1
  %61 = sext i32 %60 to i64
  %62 = getelementptr inbounds double, ptr %58, i64 %61
  %63 = load double, ptr %62, align 8, !tbaa !26
  store double %63, ptr %10, align 8, !tbaa !26
  br label %65

64:                                               ; preds = %49
  store double 0.000000e+00, ptr %10, align 8, !tbaa !26
  br label %65

65:                                               ; preds = %64, %57
  %66 = load i32, ptr %19, align 4, !tbaa !4
  %67 = icmp ne i32 %66, 9
  br i1 %67, label %68, label %75

68:                                               ; preds = %65
  %69 = load ptr, ptr %17, align 8, !tbaa !14
  %70 = load i32, ptr %19, align 4, !tbaa !4
  %71 = add nsw i32 %70, 1
  %72 = sext i32 %71 to i64
  %73 = getelementptr inbounds double, ptr %69, i64 %72
  %74 = load double, ptr %73, align 8, !tbaa !26
  store double %74, ptr %11, align 8, !tbaa !26
  br label %76

75:                                               ; preds = %65
  store double 0.000000e+00, ptr %11, align 8, !tbaa !26
  br label %76

76:                                               ; preds = %75, %68
  %77 = load double, ptr %12, align 8, !tbaa !26
  %78 = load double, ptr %10, align 8, !tbaa !26
  %79 = load double, ptr %9, align 8, !tbaa !26
  %80 = call double @llvm.fmuladd.f64(double -2.000000e+00, double %79, double %78)
  %81 = load double, ptr %11, align 8, !tbaa !26
  %82 = fadd double %80, %81
  %83 = fmul double %77, %82
  store double %83, ptr %14, align 8, !tbaa !26
  %84 = load double, ptr %13, align 8, !tbaa !26
  %85 = load double, ptr %11, align 8, !tbaa !26
  %86 = load double, ptr %10, align 8, !tbaa !26
  %87 = fsub double %85, %86
  %88 = fmul double %84, %87
  store double %88, ptr %15, align 8, !tbaa !26
  %89 = load double, ptr %14, align 8, !tbaa !26
  %90 = load double, ptr %15, align 8, !tbaa !26
  %91 = fadd double %89, %90
  %92 = load ptr, ptr %18, align 8, !tbaa !14
  %93 = load i32, ptr %19, align 4, !tbaa !4
  %94 = sext i32 %93 to i64
  %95 = getelementptr inbounds double, ptr %92, i64 %94
  store double %91, ptr %95, align 8, !tbaa !26
  br label %96

96:                                               ; preds = %76
  %97 = load i32, ptr %19, align 4, !tbaa !4
  %98 = add nsw i32 %97, 1
  store i32 %98, ptr %19, align 4, !tbaa !4
  br label %46

99:                                               ; preds = %46
  call void @llvm.lifetime.end.p0(i64 8, ptr %20) #8
  call void @llvm.lifetime.end.p0(i64 4, ptr %19) #8
  call void @llvm.lifetime.end.p0(i64 8, ptr %18) #8
  call void @llvm.lifetime.end.p0(i64 8, ptr %17) #8
  call void @llvm.lifetime.end.p0(i64 8, ptr %16) #8
  call void @llvm.lifetime.end.p0(i64 8, ptr %15) #8
  call void @llvm.lifetime.end.p0(i64 8, ptr %14) #8
  call void @llvm.lifetime.end.p0(i64 8, ptr %13) #8
  call void @llvm.lifetime.end.p0(i64 8, ptr %12) #8
  call void @llvm.lifetime.end.p0(i64 8, ptr %11) #8
  call void @llvm.lifetime.end.p0(i64 8, ptr %10) #8
  call void @llvm.lifetime.end.p0(i64 8, ptr %9) #8
  ret i32 0
}