; Function Attrs: nounwind uwtable
define internal noundef i32 @f(double %0, ptr noundef %1, ptr noundef %2, ptr noundef readonly captures(none) %3) #0 {
  %5 = tail call ptr @N_VGetArrayPointer(ptr noundef %1) #11
  %6 = tail call ptr @N_VGetArrayPointer(ptr noundef %2) #11
  %7 = getelementptr inbounds nuw i8, ptr %3, i64 8
  %8 = load double, ptr %7, align 8, !tbaa !15
  %9 = load ptr, ptr %3, align 8, !tbaa !11
  %10 = load double, ptr %9, align 8, !tbaa !16
  %11 = fmul double %8, %8
  %12 = fdiv double %10, %11
  %13 = getelementptr inbounds nuw i8, ptr %9, i64 8
  %14 = load double, ptr %13, align 8, !tbaa !16
  %15 = fmul double %8, 2.000000e+00
  %16 = fdiv double %14, %15
  br label %17

17:                                               ; preds = %4, %25
  %indvars.iv = phi i64 [ 0, %4 ], [ %indvars.iv.next, %25 ]
  %18 = getelementptr inbounds nuw double, ptr %5, i64 %indvars.iv
  %19 = load double, ptr %18, align 8, !tbaa !16
  %.not = icmp eq i64 %indvars.iv, 0
  br i1 %.not, label %.thread, label %20

20:                                               ; preds = %17
  %21 = getelementptr i8, ptr %18, i64 -8
  %22 = load double, ptr %21, align 8, !tbaa !16
  %.not31 = icmp eq i64 %indvars.iv, 9
  br i1 %.not31, label %25, label %.thread

.thread:                                          ; preds = %17, %20
  %.034 = phi double [ %22, %20 ], [ 0.000000e+00, %17 ]
  %23 = getelementptr inbounds nuw i8, ptr %18, i64 8
  %24 = load double, ptr %23, align 8, !tbaa !16
  br label %25

25:                                               ; preds = %20, %.thread
  %.035 = phi double [ %.034, %.thread ], [ %22, %20 ]
  %.030 = phi double [ %24, %.thread ], [ 0.000000e+00, %20 ]
  %26 = tail call double @llvm.fmuladd.f64(double %19, double -2.000000e+00, double %.035)
  %27 = fadd double %26, %.030
  %28 = fmul double %12, %27
  %29 = fsub double %.030, %.035
  %30 = fmul double %16, %29
  %31 = fadd double %28, %30
  %32 = getelementptr inbounds nuw double, ptr %6, i64 %indvars.iv
  store double %31, ptr %32, align 8, !tbaa !16
  %indvars.iv.next = add nuw nsw i64 %indvars.iv, 1
  %exitcond.not = icmp eq i64 %indvars.iv.next, 10
  br i1 %exitcond.not, label %33, label %17

33:                                               ; preds = %25
  ret i32 0
}